; Function Attrs: mustprogress uwtable
define noundef zeroext i1 @_ZNK5arrow7compute10Expression13IsNullLiteralEv(ptr nocapture noundef nonnull readonly align 8 dereferenceable(16) %this) local_unnamed_addr #0 align 2 {
entry:
  %0 = load ptr, ptr %this, align 8
  %cmp.i.not.i.i = icmp eq ptr %0, null
  br i1 %cmp.i.not.i.i, label %if.end5, label %_ZSt6get_ifIN5arrow5DatumEJS1_NS0_7compute10Expression9ParameterENS3_4CallEEENSt11add_pointerIT_E4typeEPSt7variantIJDpT0_EE.exit.i

_ZSt6get_ifIN5arrow5DatumEJS1_NS0_7compute10Expression9ParameterENS3_4CallEEENSt11add_pointerIT_E4typeEPSt7variantIJDpT0_EE.exit.i: ; preds = %entry
  %_M_index.i.i.i.i = getelementptr inbounds i8, ptr %0, i64 144
  %1 = load i8, ptr %_M_index.i.i.i.i, align 8
  %cmp.i.i.i = icmp eq i8 %1, 0
  br i1 %cmp.i.i.i, label %if.then, label %if.end5

if.then:                                          ; preds = %_ZSt6get_ifIN5arrow5DatumEJS1_NS0_7compute10Expression9ParameterENS3_4CallEEENSt11add_pointerIT_E4typeEPSt7variantIJDpT0_EE.exit.i
  %call2 = tail call noundef i64 @_ZNK5arrow5Datum10null_countEv(ptr noundef nonnull align 8 dereferenceable(24) %0)
  %call3 = tail call noundef i64 @_ZNK5arrow5Datum6lengthEv(ptr noundef nonnull align 8 dereferenceable(24) %0)
  %cmp = icmp eq i64 %call2, %call3
  br i1 %cmp, label %return, label %if.end5

if.end5:                                          ; preds = %entry, %_ZSt6get_ifIN5arrow5DatumEJS1_NS0_7compute10Expression9ParameterENS3_4CallEEENSt11add_pointerIT_E4typeEPSt7variantIJDpT0_EE.exit.i, %if.then
  br label %return

return:                                           ; preds = %if.then, %if.end5
  %retval.0 = phi i1 [ false, %if.end5 ], [ true, %if.then ]
  ret i1 %retval.0
}